; Function Attrs: nounwind uwtable
define ptr @Abc_NtkSwapVariables(ptr noundef %0) local_unnamed_addr #0 {
  %2 = getelementptr i8, ptr %0, i64 40
  %.val31 = load ptr, ptr %2, align 8, !tbaa !52
  %3 = getelementptr i8, ptr %.val31, i64 4
  %.val31.val = load i32, ptr %3, align 4, !tbaa !31
  %4 = tail call ptr @Abc_NtkStartFrom(ptr noundef %0, i32 noundef 3, i32 noundef 3) #13
  %5 = icmp sgt i32 %.val31.val, 1
  br i1 %5, label %.lr.ph.preheader, label %.preheader

.lr.ph.preheader:                                 ; preds = %1
  %6 = lshr i32 %.val31.val, 1
  %7 = zext nneg i32 %6 to i64
  br label %.lr.ph

.preheader:                                       ; preds = %.lr.ph, %1
  %8 = getelementptr inbounds nuw i8, ptr %0, i64 32
  %9 = load ptr, ptr %8, align 8, !tbaa !35
  %10 = getelementptr i8, ptr %9, i64 4
  %.val51 = load i32, ptr %10, align 4, !tbaa !31
  %11 = icmp sgt i32 %.val51, 0
  br i1 %11, label %.lr.ph53, label %.critedge

.lr.ph53:                                         ; preds = %.preheader
  %12 = getelementptr inbounds nuw i8, ptr %4, i64 256
  br label %23

.lr.ph:                                           ; preds = %.lr.ph.preheader, %.lr.ph
  %indvars.iv = phi i64 [ 0, %.lr.ph.preheader ], [ %indvars.iv.next, %.lr.ph ]
  %.val33 = load ptr, ptr %2, align 8, !tbaa !52
  %13 = getelementptr i8, ptr %.val33, i64 8
  %.val33.val = load ptr, ptr %13, align 8, !tbaa !25
  %14 = getelementptr inbounds nuw ptr, ptr %.val33.val, i64 %indvars.iv
  %15 = load ptr, ptr %14, align 8, !tbaa !27
  %16 = getelementptr inbounds nuw ptr, ptr %.val33.val, i64 %indvars.iv
  %17 = getelementptr inbounds nuw ptr, ptr %16, i64 %7
  %18 = load ptr, ptr %17, align 8, !tbaa !27
  %19 = getelementptr inbounds nuw i8, ptr %15, i64 64
  %20 = load ptr, ptr %19, align 8, !tbaa !30
  %21 = getelementptr inbounds nuw i8, ptr %18, i64 64
  %22 = load ptr, ptr %21, align 8, !tbaa !30
  store ptr %22, ptr %19, align 8, !tbaa !30
  store ptr %20, ptr %21, align 8, !tbaa !30
  %indvars.iv.next = add nuw nsw i64 %indvars.iv, 1
  %exitcond.not = icmp eq i64 %indvars.iv.next, %7
  br i1 %exitcond.not, label %.preheader, label %.lr.ph, !llvm.loop !62

23:                                               ; preds = %.lr.ph53, %62
  %24 = phi ptr [ %9, %.lr.ph53 ], [ %63, %62 ]
  %indvars.iv55 = phi i64 [ 0, %.lr.ph53 ], [ %indvars.iv.next56, %62 ]
  %25 = getelementptr i8, ptr %24, i64 8
  %.val34.val = load ptr, ptr %25, align 8, !tbaa !25
  %26 = getelementptr inbounds nuw ptr, ptr %.val34.val, i64 %indvars.iv55
  %27 = load ptr, ptr %26, align 8, !tbaa !27
  %28 = icmp eq ptr %27, null
  br i1 %28, label %62, label %29

29:                                               ; preds = %23
  %30 = getelementptr i8, ptr %27, i64 20
  %.val35 = load i32, ptr %30, align 4
  %31 = and i32 %.val35, 15
  %.not = icmp eq i32 %31, 7
  br i1 %.not, label %32, label %62

32:                                               ; preds = %29
  %33 = load ptr, ptr %12, align 8, !tbaa !42
  %.val.i = load ptr, ptr %27, align 8, !tbaa !32
  %34 = getelementptr i8, ptr %27, i64 32
  %.val2.i = load ptr, ptr %34, align 8, !tbaa !34
  %35 = getelementptr i8, ptr %.val.i, i64 32
  %.val.val.i = load ptr, ptr %35, align 8, !tbaa !35
  %.val2.val.i = load i32, ptr %.val2.i, align 4, !tbaa !36
  %36 = getelementptr i8, ptr %.val.val.i, i64 8
  %.val.val.val.i = load ptr, ptr %36, align 8, !tbaa !25
  %37 = sext i32 %.val2.val.i to i64
  %38 = getelementptr inbounds ptr, ptr %.val.val.val.i, i64 %37
  %39 = load ptr, ptr %38, align 8, !tbaa !27
  %40 = getelementptr inbounds nuw i8, ptr %39, i64 64
  %41 = load ptr, ptr %40, align 8, !tbaa !30
  %42 = lshr i32 %.val35, 10
  %43 = and i32 %42, 1
  %44 = ptrtoint ptr %41 to i64
  %45 = zext nneg i32 %43 to i64
  %46 = xor i64 %44, %45
  %47 = inttoptr i64 %46 to ptr
  %48 = getelementptr i8, ptr %.val2.i, i64 4
  %.val2.val.i41 = load i32, ptr %48, align 4, !tbaa !36
  %49 = sext i32 %.val2.val.i41 to i64
  %50 = getelementptr inbounds ptr, ptr %.val.val.val.i, i64 %49
  %51 = load ptr, ptr %50, align 8, !tbaa !27
  %52 = getelementptr inbounds nuw i8, ptr %51, i64 64
  %53 = load ptr, ptr %52, align 8, !tbaa !30
  %54 = lshr i32 %.val35, 11
  %55 = and i32 %54, 1
  %56 = ptrtoint ptr %53 to i64
  %57 = zext nneg i32 %55 to i64
  %58 = xor i64 %56, %57
  %59 = inttoptr i64 %58 to ptr
  %60 = tail call ptr @Abc_AigAnd(ptr noundef %33, ptr noundef %47, ptr noundef %59) #13
  %61 = getelementptr inbounds nuw i8, ptr %27, i64 64
  store ptr %60, ptr %61, align 8, !tbaa !30
  %.pre = load ptr, ptr %8, align 8, !tbaa !35
  br label %62

62:                                               ; preds = %32, %29, %23
  %63 = phi ptr [ %.pre, %32 ], [ %24, %29 ], [ %24, %23 ]
  %indvars.iv.next56 = add nuw nsw i64 %indvars.iv55, 1
  %64 = getelementptr i8, ptr %63, i64 4
  %.val = load i32, ptr %64, align 4, !tbaa !31
  %65 = sext i32 %.val to i64
  %66 = icmp slt i64 %indvars.iv.next56, %65
  br i1 %66, label %23, label %.critedge, !llvm.loop !63

.critedge:                                        ; preds = %62, %.preheader
  %67 = getelementptr i8, ptr %0, i64 48
  %.val37 = load ptr, ptr %67, align 8, !tbaa !58
  %68 = getelementptr i8, ptr %.val37, i64 8
  %.val37.val = load ptr, ptr %68, align 8, !tbaa !25
  %.val37.val.val = load ptr, ptr %.val37.val, align 8, !tbaa !27
  %.val.i44 = load ptr, ptr %.val37.val.val, align 8, !tbaa !32
  %69 = getelementptr i8, ptr %.val37.val.val, i64 32
  %.val2.i45 = load ptr, ptr %69, align 8, !tbaa !34
  %70 = getelementptr i8, ptr %.val.i44, i64 32
  %.val.val.i46 = load ptr, ptr %70, align 8, !tbaa !35
  %.val2.val.i47 = load i32, ptr %.val2.i45, align 4, !tbaa !36
  %71 = getelementptr i8, ptr %.val.val.i46, i64 8
  %.val.val.val.i48 = load ptr, ptr %71, align 8, !tbaa !25
  %72 = sext i32 %.val2.val.i47 to i64
  %73 = getelementptr inbounds ptr, ptr %.val.val.val.i48, i64 %72
  %74 = load ptr, ptr %73, align 8, !tbaa !27
  %75 = getelementptr inbounds nuw i8, ptr %74, i64 64
  %76 = load ptr, ptr %75, align 8, !tbaa !30
  %77 = getelementptr i8, ptr %.val37.val.val, i64 20
  %.val3.i49 = load i32, ptr %77, align 4
  %78 = lshr i32 %.val3.i49, 10
  %79 = and i32 %78, 1
  %80 = ptrtoint ptr %76 to i64
  %81 = zext nneg i32 %79 to i64
  %82 = xor i64 %81, %80
  %83 = inttoptr i64 %82 to ptr
  %84 = getelementptr i8, ptr %4, i64 48
  %.val36 = load ptr, ptr %84, align 8, !tbaa !58
  %85 = getelementptr i8, ptr %.val36, i64 8
  %.val36.val = load ptr, ptr %85, align 8, !tbaa !25
  %.val36.val.val = load ptr, ptr %.val36.val, align 8, !tbaa !27
  tail call void @Abc_ObjAddFanin(ptr noundef %.val36.val.val, ptr noundef %83) #13
  ret ptr %4
}